; Function Attrs: nounwind uwtable
define noalias noundef ptr @Abc_SuppGen(i32 noundef %0, i32 noundef %1) local_unnamed_addr #0 {
  %3 = tail call noalias dereferenceable_or_null(16) ptr @malloc(i64 noundef 16) #22
  %4 = getelementptr inbounds nuw i8, ptr %3, i64 4
  store i32 0, ptr %4, align 4, !tbaa !3
  store i32 1000, ptr %3, align 8, !tbaa !10
  %5 = tail call noalias dereferenceable_or_null(8000) ptr @malloc(i64 noundef 8000) #22
  %6 = getelementptr inbounds nuw i8, ptr %3, i64 8
  store ptr %5, ptr %6, align 8, !tbaa !11
  %.not = icmp eq i32 %1, 31
  br i1 %.not, label %._crit_edge, label %.lr.ph.preheader

.lr.ph.preheader:                                 ; preds = %2
  %7 = shl nuw nsw i32 1, %1
  %wide.trip.count = zext nneg i32 %7 to i64
  br label %.lr.ph

.lr.ph:                                           ; preds = %.lr.ph.preheader, %35
  %8 = phi ptr [ %5, %.lr.ph.preheader ], [ %.pre.i11, %35 ]
  %9 = phi i32 [ 1000, %.lr.ph.preheader ], [ %36, %35 ]
  %10 = phi i32 [ 0, %.lr.ph.preheader ], [ %37, %35 ]
  %indvars.iv = phi i64 [ 0, %.lr.ph.preheader ], [ %indvars.iv.next, %35 ]
  %11 = trunc nuw nsw i64 %indvars.iv to i32
  %12 = tail call range(i32 0, 32) i32 @llvm.ctpop.i32(i32 %11)
  %13 = icmp eq i32 %12, %0
  br i1 %13, label %14, label %35

14:                                               ; preds = %.lr.ph
  %15 = icmp eq i32 %10, %9
  br i1 %15, label %16, label %Vec_WrdPush.exit

16:                                               ; preds = %14
  %17 = icmp slt i32 %9, 16
  br i1 %17, label %18, label %23

18:                                               ; preds = %16
  %.not9.i.i = icmp eq ptr %8, null
  br i1 %.not9.i.i, label %21, label %19

19:                                               ; preds = %18
  %20 = tail call dereferenceable_or_null(128) ptr @realloc(ptr noundef nonnull %8, i64 noundef 128) #23
  br label %Vec_WrdPush.exit.sink.split

21:                                               ; preds = %18
  %22 = tail call noalias dereferenceable_or_null(128) ptr @malloc(i64 noundef 128) #22
  br label %Vec_WrdPush.exit.sink.split

23:                                               ; preds = %16
  %24 = shl nuw nsw i32 %9, 1
  %.not9.i9.i = icmp eq ptr %8, null
  %25 = zext nneg i32 %24 to i64
  %26 = shl nuw nsw i64 %25, 3
  br i1 %.not9.i9.i, label %29, label %27

27:                                               ; preds = %23
  %28 = tail call ptr @realloc(ptr noundef nonnull %8, i64 noundef %26) #23
  br label %Vec_WrdPush.exit.sink.split

29:                                               ; preds = %23
  %30 = tail call noalias ptr @malloc(i64 noundef %26) #22
  br label %Vec_WrdPush.exit.sink.split

Vec_WrdPush.exit.sink.split:                      ; preds = %27, %29, %19, %21
  %.sink13 = phi ptr [ %20, %19 ], [ %22, %21 ], [ %28, %27 ], [ %30, %29 ]
  %.sink = phi i32 [ 16, %19 ], [ 16, %21 ], [ %24, %27 ], [ %24, %29 ]
  store ptr %.sink13, ptr %6, align 8, !tbaa !11
  store i32 %.sink, ptr %3, align 8, !tbaa !10
  br label %Vec_WrdPush.exit

Vec_WrdPush.exit:                                 ; preds = %Vec_WrdPush.exit.sink.split, %14
  %.pre.i12 = phi ptr [ %8, %14 ], [ %.sink13, %Vec_WrdPush.exit.sink.split ]
  %31 = phi i32 [ %9, %14 ], [ %.sink, %Vec_WrdPush.exit.sink.split ]
  %32 = add nsw i32 %10, 1
  store i32 %32, ptr %4, align 4, !tbaa !3
  %33 = sext i32 %10 to i64
  %34 = getelementptr inbounds i64, ptr %.pre.i12, i64 %33
  store i64 %indvars.iv, ptr %34, align 8, !tbaa !12
  br label %35

35:                                               ; preds = %.lr.ph, %Vec_WrdPush.exit
  %.pre.i11 = phi ptr [ %8, %.lr.ph ], [ %.pre.i12, %Vec_WrdPush.exit ]
  %36 = phi i32 [ %9, %.lr.ph ], [ %31, %Vec_WrdPush.exit ]
  %37 = phi i32 [ %10, %.lr.ph ], [ %32, %Vec_WrdPush.exit ]
  %indvars.iv.next = add nuw nsw i64 %indvars.iv, 1
  %exitcond.not = icmp eq i64 %indvars.iv.next, %wide.trip.count
  br i1 %exitcond.not, label %._crit_edge, label %.lr.ph, !llvm.loop !14

._crit_edge:                                      ; preds = %35, %2
  ret ptr %3
}